target datalayout = "e-m:e-p270:32:32-p271:32:32-p272:64:64-i64:64-i128:128-f80:128-n8:16:32:64-S128"
target triple = "x86_64-pc-linux-gnu"

@.str = private unnamed_addr constant [24 x i8] c"%s for %+li\0B port % li\0B\00", align 1
@rb_eIOTimeoutError = external global i64, align 8

; Function Attrs: noreturn nounwind sspstrong uwtable
define void @rsock_syserr_fail_host_port(i32 noundef %0, ptr noundef %1, i64 noundef %2, i64 noundef %3) #1 {
  %5 = alloca i32, align 4
  %6 = alloca ptr, align 8
  %7 = alloca i64, align 8
  %8 = alloca i64, align 8
  %9 = alloca i64, align 8
  store i32 %0, ptr %5, align 4, !tbaa !13
  store ptr %1, ptr %6, align 8, !tbaa !6
  store i64 %2, ptr %7, align 8, !tbaa !11
  store i64 %3, ptr %8, align 8, !tbaa !11
  call void @llvm.lifetime.start.p0(i64 8, ptr %9) #24
  %10 = load ptr, ptr %6, align 8, !tbaa !6
  %11 = load i64, ptr %7, align 8, !tbaa !11
  %12 = load i64, ptr %8, align 8, !tbaa !11
  %13 = call i64 (ptr, ...) @rb_sprintf(ptr noundef @.str, ptr noundef %10, i64 noundef %11, i64 noundef %12)
  store i64 %13, ptr %9, align 8, !tbaa !11
  %14 = load i32, ptr %5, align 4, !tbaa !13
  %15 = icmp eq i32 %14, 110
  br i1 %15, label %16, label %20

16:                                               ; preds = %4
  %17 = load i64, ptr @rb_eIOTimeoutError, align 8, !tbaa !11
  %18 = load i64, ptr %9, align 8, !tbaa !11
  %19 = call i64 @rb_exc_new_str(i64 noundef %17, i64 noundef %18)
  call void @rb_exc_raise(i64 noundef %19) #23
  unreachable

20:                                               ; preds = %4
  %21 = load i32, ptr %5, align 4, !tbaa !13
  %22 = load i64, ptr %9, align 8, !tbaa !11
  call void @rb_syserr_fail_str(i32 noundef %21, i64 noundef %22) #23
  unreachable
}