; Function Attrs: noreturn nounwind sspstrong uwtable
define void @rsock_syserr_fail_host_port(i32 noundef %0, ptr noundef %1, i64 noundef %2, i64 noundef %3) local_unnamed_addr #1 {
  %5 = tail call i64 (ptr, ...) @rb_sprintf(ptr noundef nonnull @.str, ptr noundef %1, i64 noundef %2, i64 noundef %3) #16
  %6 = icmp eq i32 %0, 110
  br i1 %6, label %7, label %10

7:                                                ; preds = %4
  %8 = load i64, ptr @rb_eIOTimeoutError, align 8, !tbaa !10
  %9 = tail call i64 @rb_exc_new_str(i64 noundef %8, i64 noundef %5) #16
  tail call void @rb_exc_raise(i64 noundef %9) #18
  unreachable

10:                                               ; preds = %4
  tail call void @rb_syserr_fail_str(i32 noundef %0, i64 noundef %5) #18
  unreachable
}